; Function Attrs: nounwind uwtable
define hidden void @zim_DOMNode_getRootNode(ptr nocapture noundef readonly %0, ptr noundef %1) local_unnamed_addr #0 {
  %3 = alloca ptr, align 8
  store ptr null, ptr %3, align 8
  %4 = getelementptr inbounds i8, ptr %0, i64 44
  %5 = load i32, ptr %4, align 4
  %6 = call i32 (i32, ptr, ...) @zend_parse_parameters(i32 noundef %5, ptr noundef nonnull @.str.22, ptr noundef nonnull %3) #12
  %7 = icmp eq i32 %6, -1
  br i1 %7, label %8, label %11

8:                                                ; preds = %2
  %9 = load ptr, ptr getelementptr inbounds (%struct._zend_executor_globals, ptr @executor_globals, i64 0, i32 50), align 8
  %10 = icmp ne ptr %9, null
  call void @llvm.assume(i1 %10)
  br label %32

11:                                               ; preds = %2
  %12 = getelementptr inbounds i8, ptr %0, i64 32
  %13 = load ptr, ptr %12, align 8
  %14 = getelementptr inbounds i8, ptr %13, i64 -24
  %15 = load ptr, ptr %14, align 8
  %16 = icmp eq ptr %15, null
  br i1 %16, label %17, label %25

17:                                               ; preds = %11
  %18 = getelementptr inbounds i8, ptr %13, i64 16
  %19 = load ptr, ptr %18, align 8
  %20 = getelementptr inbounds i8, ptr %19, i64 8
  %21 = load ptr, ptr %20, align 8
  %22 = getelementptr inbounds i8, ptr %21, i64 24
  call void (ptr, ptr, ...) @zend_throw_error(ptr noundef null, ptr noundef nonnull @.str.11, ptr noundef nonnull %22) #12
  %23 = load ptr, ptr getelementptr inbounds (%struct._zend_executor_globals, ptr @executor_globals, i64 0, i32 50), align 8
  %24 = icmp ne ptr %23, null
  call void @llvm.assume(i1 %24)
  br label %32

25:                                               ; preds = %11
  %26 = load ptr, ptr %15, align 8
  br label %27

27:                                               ; preds = %27, %25
  %.0 = phi ptr [ %26, %25 ], [ %29, %27 ]
  %28 = getelementptr inbounds i8, ptr %.0, i64 40
  %29 = load ptr, ptr %28, align 8
  %.not = icmp eq ptr %29, null
  br i1 %.not, label %30, label %27

30:                                               ; preds = %27
  %31 = call zeroext i1 @php_dom_create_object(ptr noundef nonnull %.0, ptr noundef %1, ptr noundef nonnull %14) #12
  br label %32

32:                                               ; preds = %30, %17, %8
  ret void
}